; Function Attrs: mustprogress uwtable
define noundef nonnull align 8 dereferenceable(8) ptr @_ZN4LIEF3DEXlsERSoRKNS0_4TypeE(ptr noundef nonnull returned align 8 dereferenceable(8) %0, ptr nocapture noundef nonnull readonly align 8 dereferenceable(24) %1) local_unnamed_addr #3 personality ptr @__gxx_personality_v0 {
  %3 = alloca %"class.std::__cxx11::basic_string", align 8
  %4 = getelementptr inbounds i8, ptr %1, i64 8
  %5 = load i32, ptr %4, align 8
  switch i32 %5, label %.loopexit [
    i32 3, label %.lr.ph.i
    i32 2, label %30
    i32 1, label %35
  ]

.lr.ph.i:                                         ; preds = %2, %.lr.ph.i
  %.04.i = phi ptr [ %10, %.lr.ph.i ], [ %1, %2 ]
  %6 = getelementptr inbounds i8, ptr %.04.i, i64 16
  %7 = load ptr, ptr %6, align 8
  %8 = getelementptr inbounds i8, ptr %7, i64 8
  %9 = load ptr, ptr %8, align 8
  %10 = getelementptr inbounds i8, ptr %9, i64 -24
  %11 = getelementptr inbounds i8, ptr %9, i64 -16
  %12 = load i32, ptr %11, align 8
  %13 = icmp eq i32 %12, 3
  br i1 %13, label %.lr.ph.i, label %_ZNK4LIEF3DEX4Type21underlying_array_typeEv.exit, !llvm.loop !6

_ZNK4LIEF3DEX4Type21underlying_array_typeEv.exit: ; preds = %.lr.ph.i
  %14 = tail call noundef nonnull align 8 dereferenceable(8) ptr @_ZN4LIEF3DEXlsERSoRKNS0_4TypeE(ptr noundef nonnull align 8 dereferenceable(8) %0, ptr noundef nonnull align 8 dereferenceable(24) %10)
  br label %15

15:                                               ; preds = %27, %_ZNK4LIEF3DEX4Type21underlying_array_typeEv.exit
  %.017 = phi i64 [ 0, %_ZNK4LIEF3DEX4Type21underlying_array_typeEv.exit ], [ %29, %27 ]
  %16 = load i32, ptr %4, align 8
  %.not.i = icmp eq i32 %16, 3
  br i1 %.not.i, label %.lr.ph.i18, label %_ZNK4LIEF3DEX4Type3dimEv.exit

.lr.ph.i18:                                       ; preds = %15, %.lr.ph.i18
  %.08.i = phi i64 [ %17, %.lr.ph.i18 ], [ 0, %15 ]
  %.057.i = phi ptr [ %22, %.lr.ph.i18 ], [ %1, %15 ]
  %17 = add i64 %.08.i, 1
  %18 = getelementptr inbounds i8, ptr %.057.i, i64 16
  %19 = load ptr, ptr %18, align 8
  %20 = getelementptr inbounds i8, ptr %19, i64 8
  %21 = load ptr, ptr %20, align 8
  %22 = getelementptr inbounds i8, ptr %21, i64 -24
  %23 = getelementptr inbounds i8, ptr %21, i64 -16
  %24 = load i32, ptr %23, align 8
  %25 = icmp eq i32 %24, 3
  br i1 %25, label %.lr.ph.i18, label %_ZNK4LIEF3DEX4Type3dimEv.exit, !llvm.loop !7

_ZNK4LIEF3DEX4Type3dimEv.exit:                    ; preds = %.lr.ph.i18, %15
  %.06.i = phi i64 [ 0, %15 ], [ %17, %.lr.ph.i18 ]
  %26 = icmp ult i64 %.017, %.06.i
  br i1 %26, label %27, label %.loopexit

27:                                               ; preds = %_ZNK4LIEF3DEX4Type3dimEv.exit
  %28 = tail call noundef nonnull align 8 dereferenceable(8) ptr @_ZStlsISt11char_traitsIcEERSt13basic_ostreamIcT_ES5_PKc(ptr noundef nonnull align 8 dereferenceable(8) %0, ptr noundef nonnull @.str.1)
  %29 = add nuw i64 %.017, 1
  br label %15, !llvm.loop !8

30:                                               ; preds = %2
  %31 = getelementptr inbounds i8, ptr %1, i64 16
  %32 = load ptr, ptr %31, align 8
  %33 = tail call noundef nonnull align 8 dereferenceable(32) ptr @_ZNK4LIEF3DEX5Class8fullnameB5cxx11Ev(ptr noundef nonnull align 8 dereferenceable(140) %32)
  %34 = tail call noundef nonnull align 8 dereferenceable(8) ptr @_ZStlsIcSt11char_traitsIcESaIcEERSt13basic_ostreamIT_T0_ES7_RKNSt7__cxx1112basic_stringIS4_S5_T1_EE(ptr noundef nonnull align 8 dereferenceable(8) %0, ptr noundef nonnull align 8 dereferenceable(32) %33)
  br label %.loopexit

35:                                               ; preds = %2
  %36 = getelementptr inbounds i8, ptr %1, i64 16
  %37 = load ptr, ptr %36, align 8
  %38 = load i32, ptr %37, align 4
  call void @_ZN4LIEF3DEX4Type11pretty_nameB5cxx11ENS1_10PRIMITIVESE(ptr dead_on_unwind nonnull writable sret(%"class.std::__cxx11::basic_string") align 8 %3, i32 noundef %38)
  %39 = invoke noundef nonnull align 8 dereferenceable(8) ptr @_ZStlsIcSt11char_traitsIcESaIcEERSt13basic_ostreamIT_T0_ES7_RKNSt7__cxx1112basic_stringIS4_S5_T1_EE(ptr noundef nonnull align 8 dereferenceable(8) %0, ptr noundef nonnull align 8 dereferenceable(32) %3)
          to label %40 unwind label %41

40:                                               ; preds = %35
  call void @_ZNSt7__cxx1112basic_stringIcSt11char_traitsIcESaIcEED1Ev(ptr noundef nonnull align 8 dereferenceable(32) %3) #20
  br label %.loopexit

41:                                               ; preds = %35
  %42 = landingpad { ptr, i32 }
          cleanup
  call void @_ZNSt7__cxx1112basic_stringIcSt11char_traitsIcESaIcEED1Ev(ptr noundef nonnull align 8 dereferenceable(32) %3) #20
  resume { ptr, i32 } %42

.loopexit:                                        ; preds = %_ZNK4LIEF3DEX4Type3dimEv.exit, %2, %40, %30
  ret ptr %0
}